target datalayout = "e-m:e-p270:32:32-p271:32:32-p272:64:64-i64:64-i128:128-f80:128-n8:16:32:64-S128"
target triple = "x86_64-pc-linux-gnu"

%struct.AVFormatContext = type { ptr, ptr, ptr, ptr, ptr, i32, i32, ptr, i32, ptr, i32, ptr, ptr, i64, i64, i64, i32, i32, i32, i64, i64, ptr, i32, i32, ptr, i32, i32, i32, i32, ptr, i64, i32, i32, %struct.AVIOInterruptCB, i32, i32, i32, i32, i64, i32, i32, i32, i32, i32, i32, i32, i32, i32, i32, i32, i32, i64, i32, i32, i32, i32, i32, ptr, ptr, ptr, ptr, i32, ptr, ptr, ptr, ptr, i32, ptr, ptr, i64, ptr, ptr, ptr, i64 }
%struct.AVIOInterruptCB = type { ptr, ptr }

; Function Attrs: alwaysinline nounwind uwtable
define internal i64 @avio_tell(ptr noundef %0) #7 {
  %2 = alloca ptr, align 8
  store ptr %0, ptr %2, align 8, !tbaa !30
  %3 = load ptr, ptr %2, align 8, !tbaa !30
  %4 = call i64 @avio_seek(ptr noundef %3, i64 noundef 0, i32 noundef 1)
  ret i64 %4
}

; Function Attrs: nounwind uwtable
define internal i64 @gxf_resync_media(ptr noundef %0, i64 noundef %1, i32 noundef %2, i32 noundef %3) #0 {
  %5 = alloca ptr, align 8
  %6 = alloca i64, align 8
  %7 = alloca i32, align 4
  %8 = alloca i32, align 4
  %9 = alloca i32, align 4
  %10 = alloca i64, align 8
  %11 = alloca i64, align 8
  %12 = alloca i32, align 4
  %13 = alloca i64, align 8
  %14 = alloca i32, align 4
  %15 = alloca ptr, align 8
  %16 = alloca i32, align 4
  store ptr %0, ptr %5, align 8, !tbaa !13
  store i64 %1, ptr %6, align 8, !tbaa !72
  store i32 %2, ptr %7, align 4, !tbaa !34
  store i32 %3, ptr %8, align 4, !tbaa !34
  call void @llvm.lifetime.start.p0(i64 4, ptr %9) #10
  call void @llvm.lifetime.start.p0(i64 8, ptr %10) #10
  call void @llvm.lifetime.start.p0(i64 8, ptr %11) #10
  store i64 0, ptr %11, align 8, !tbaa !72
  call void @llvm.lifetime.start.p0(i64 4, ptr %12) #10
  call void @llvm.lifetime.start.p0(i64 8, ptr %13) #10
  store i64 -9223372036854775808, ptr %13, align 8, !tbaa !72
  call void @llvm.lifetime.start.p0(i64 4, ptr %14) #10
  call void @llvm.lifetime.start.p0(i64 8, ptr %15) #10
  %17 = load ptr, ptr %5, align 8, !tbaa !13
  %18 = getelementptr inbounds nuw %struct.AVFormatContext, ptr %17, i32 0, i32 4
  %19 = load ptr, ptr %18, align 8, !tbaa !15
  store ptr %19, ptr %15, align 8, !tbaa !30
  call void @llvm.lifetime.start.p0(i64 4, ptr %16) #10
  %20 = load ptr, ptr %15, align 8, !tbaa !30
  %21 = call i32 @avio_rb32(ptr noundef %20)
  store i32 %21, ptr %9, align 4, !tbaa !34
  br label %22

22:                                               ; preds = %111, %79, %58, %4
  br label %23

23:                                               ; preds = %35, %22
  %24 = load i32, ptr %9, align 4, !tbaa !34
  %25 = icmp ne i32 %24, 0
  br i1 %25, label %26, label %41

26:                                               ; preds = %23
  %27 = load i64, ptr %6, align 8, !tbaa !72
  %28 = add i64 %27, -1
  store i64 %28, ptr %6, align 8, !tbaa !72
  %29 = icmp ne i64 %27, 0
  br i1 %29, label %30, label %34

30:                                               ; preds = %26
  %31 = load ptr, ptr %15, align 8, !tbaa !30
  %32 = call i32 @avio_feof(ptr noundef %31)
  %33 = icmp ne i32 %32, 0
  br i1 %33, label %34, label %35

34:                                               ; preds = %30, %26
  br label %114

35:                                               ; preds = %30
  %36 = load i32, ptr %9, align 4, !tbaa !34
  %37 = shl i32 %36, 8
  %38 = load ptr, ptr %15, align 8, !tbaa !30
  %39 = call i32 @avio_r8(ptr noundef %38)
  %40 = or i32 %37, %39
  store i32 %40, ptr %9, align 4, !tbaa !34
  br label %23, !llvm.loop !113

41:                                               ; preds = %23
  %42 = load i64, ptr %6, align 8, !tbaa !72
  %43 = add i64 %42, -1
  store i64 %43, ptr %6, align 8, !tbaa !72
  %44 = icmp ne i64 %42, 0
  br i1 %44, label %45, label %49

45:                                               ; preds = %41
  %46 = load ptr, ptr %15, align 8, !tbaa !30
  %47 = call i32 @avio_feof(ptr noundef %46)
  %48 = icmp ne i32 %47, 0
  br i1 %48, label %49, label %50

49:                                               ; preds = %45, %41
  br label %114

50:                                               ; preds = %45
  %51 = load i32, ptr %9, align 4, !tbaa !34
  %52 = shl i32 %51, 8
  %53 = load ptr, ptr %15, align 8, !tbaa !30
  %54 = call i32 @avio_r8(ptr noundef %53)
  %55 = or i32 %52, %54
  store i32 %55, ptr %9, align 4, !tbaa !34
  %56 = load i32, ptr %9, align 4, !tbaa !34
  %57 = icmp ne i32 %56, 1
  br i1 %57, label %58, label %59

58:                                               ; preds = %50
  br label %22

59:                                               ; preds = %50
  %60 = load ptr, ptr %15, align 8, !tbaa !30
  %61 = call i64 @avio_tell(ptr noundef %60)
  store i64 %61, ptr %10, align 8, !tbaa !72
  %62 = load ptr, ptr %15, align 8, !tbaa !30
  %63 = call i64 @avio_seek(ptr noundef %62, i64 noundef -5, i32 noundef 1)
  %64 = icmp slt i64 %63, 0
  br i1 %64, label %65, label %66

65:                                               ; preds = %59
  br label %114

66:                                               ; preds = %59
  %67 = load ptr, ptr %15, align 8, !tbaa !30
  %68 = call i32 @parse_packet_header(ptr noundef %67, ptr noundef %16, ptr noundef %14)
  %69 = icmp ne i32 %68, 0
  br i1 %69, label %70, label %73

70:                                               ; preds = %66
  %71 = load i32, ptr %16, align 4, !tbaa !34
  %72 = icmp ne i32 %71, 191
  br i1 %72, label %73, label %80

73:                                               ; preds = %70, %66
  %74 = load ptr, ptr %15, align 8, !tbaa !30
  %75 = load i64, ptr %10, align 8, !tbaa !72
  %76 = call i64 @avio_seek(ptr noundef %74, i64 noundef %75, i32 noundef 0)
  %77 = icmp slt i64 %76, 0
  br i1 %77, label %78, label %79

78:                                               ; preds = %73
  br label %114

79:                                               ; preds = %73
  br label %22

80:                                               ; preds = %70
  %81 = load ptr, ptr %15, align 8, !tbaa !30
  %82 = call i32 @avio_r8(ptr noundef %81)
  %83 = load ptr, ptr %15, align 8, !tbaa !30
  %84 = call i32 @avio_r8(ptr noundef %83)
  store i32 %84, ptr %12, align 4, !tbaa !34
  %85 = load ptr, ptr %15, align 8, !tbaa !30
  %86 = call i32 @avio_rb32(ptr noundef %85)
  %87 = zext i32 %86 to i64
  store i64 %87, ptr %13, align 8, !tbaa !72
  %88 = load ptr, ptr %15, align 8, !tbaa !30
  %89 = call i64 @avio_tell(ptr noundef %88)
  %90 = sub nsw i64 %89, 16
  %91 = sub nsw i64 %90, 6
  store i64 %91, ptr %11, align 8, !tbaa !72
  %92 = load i32, ptr %7, align 4, !tbaa !34
  %93 = icmp sge i32 %92, 0
  br i1 %93, label %94, label %98

94:                                               ; preds = %80
  %95 = load i32, ptr %7, align 4, !tbaa !34
  %96 = load i32, ptr %12, align 4, !tbaa !34
  %97 = icmp ne i32 %95, %96
  br i1 %97, label %106, label %98

98:                                               ; preds = %94, %80
  %99 = load i32, ptr %8, align 4, !tbaa !34
  %100 = icmp sge i32 %99, 0
  br i1 %100, label %101, label %113

101:                                              ; preds = %98
  %102 = load i32, ptr %8, align 4, !tbaa !34
  %103 = sext i32 %102 to i64
  %104 = load i64, ptr %13, align 8, !tbaa !72
  %105 = icmp sgt i64 %103, %104
  br i1 %105, label %106, label %113

106:                                              ; preds = %101, %94
  %107 = load ptr, ptr %15, align 8, !tbaa !30
  %108 = load i64, ptr %10, align 8, !tbaa !72
  %109 = call i64 @avio_seek(ptr noundef %107, i64 noundef %108, i32 noundef 0)
  %110 = icmp sge i64 %109, 0
  br i1 %110, label %111, label %112

111:                                              ; preds = %106
  br label %22

112:                                              ; preds = %106
  br label %113

113:                                              ; preds = %112, %101, %98
  br label %114

114:                                              ; preds = %113, %78, %65, %49, %34
  %115 = load i64, ptr %11, align 8, !tbaa !72
  %116 = icmp ne i64 %115, 0
  br i1 %116, label %117, label %121

117:                                              ; preds = %114
  %118 = load ptr, ptr %15, align 8, !tbaa !30
  %119 = load i64, ptr %11, align 8, !tbaa !72
  %120 = call i64 @avio_seek(ptr noundef %118, i64 noundef %119, i32 noundef 0)
  br label %121

121:                                              ; preds = %117, %114
  %122 = load i64, ptr %13, align 8, !tbaa !72
  call void @llvm.lifetime.end.p0(i64 4, ptr %16) #10
  call void @llvm.lifetime.end.p0(i64 8, ptr %15) #10
  call void @llvm.lifetime.end.p0(i64 4, ptr %14) #10
  call void @llvm.lifetime.end.p0(i64 8, ptr %13) #10
  call void @llvm.lifetime.end.p0(i64 4, ptr %12) #10
  call void @llvm.lifetime.end.p0(i64 8, ptr %11) #10
  call void @llvm.lifetime.end.p0(i64 8, ptr %10) #10
  call void @llvm.lifetime.end.p0(i64 4, ptr %9) #10
  ret i64 %122
}