; Function Attrs: nounwind uwtable
define internal fastcc range(i64 0, -9223372036854775807) i64 @gxf_resync_media(ptr %.32.val, i64 noundef %0, i32 noundef %1) unnamed_addr #1 {
  %3 = alloca i32, align 4
  %4 = alloca i32, align 4
  call void @llvm.lifetime.start.p0(i64 4, ptr nonnull %3) #7
  call void @llvm.lifetime.start.p0(i64 4, ptr nonnull %4) #7
  %5 = tail call i32 @avio_rb32(ptr noundef %.32.val) #7
  %6 = icmp sgt i32 %1, -1
  br label %.outer

.outer:                                           ; preds = %39, %2
  %.037.ph = phi i64 [ %37, %39 ], [ 0, %2 ]
  %.035.ph = phi i32 [ 1, %39 ], [ %5, %2 ]
  %.033.ph = phi i64 [ %35, %39 ], [ -9223372036854775808, %2 ]
  %.0.ph = phi i64 [ %14, %39 ], [ %0, %2 ]
  br label %.backedge

.backedge:                                        ; preds = %.backedge.backedge, %.outer
  %.035 = phi i32 [ %.035.ph, %.outer ], [ %18, %.backedge.backedge ]
  %.0 = phi i64 [ %.0.ph, %.outer ], [ %14, %.backedge.backedge ]
  %.not12 = icmp eq i32 %.035, 0
  br i1 %.not12, label %._crit_edge, label %.lr.ph

.lr.ph:                                           ; preds = %.backedge, %10
  %.114 = phi i64 [ %7, %10 ], [ %.0, %.backedge ]
  %.13613 = phi i32 [ %13, %10 ], [ %.035, %.backedge ]
  %7 = add i64 %.114, -1
  %.not47 = icmp eq i64 %.114, 0
  br i1 %.not47, label %.loopexit, label %8

8:                                                ; preds = %.lr.ph
  %9 = tail call i32 @avio_feof(ptr noundef %.32.val) #7
  %.not48 = icmp eq i32 %9, 0
  br i1 %.not48, label %10, label %.loopexit

10:                                               ; preds = %8
  %11 = shl i32 %.13613, 8
  %12 = tail call i32 @avio_r8(ptr noundef %.32.val) #7
  %13 = or i32 %12, %11
  %.not = icmp eq i32 %13, 0
  br i1 %.not, label %._crit_edge, label %.lr.ph, !llvm.loop !87

._crit_edge:                                      ; preds = %10, %.backedge
  %.1.lcssa = phi i64 [ %.0, %.backedge ], [ %7, %10 ]
  %14 = add i64 %.1.lcssa, -1
  %.not44 = icmp eq i64 %.1.lcssa, 0
  br i1 %.not44, label %.loopexit, label %15

15:                                               ; preds = %._crit_edge
  %16 = tail call i32 @avio_feof(ptr noundef %.32.val) #7
  %.not45 = icmp eq i32 %16, 0
  br i1 %.not45, label %17, label %.loopexit

17:                                               ; preds = %15
  %18 = tail call i32 @avio_r8(ptr noundef %.32.val) #7
  %.not46 = icmp eq i32 %18, 1
  br i1 %.not46, label %19, label %.backedge.backedge

.backedge.backedge:                               ; preds = %17, %28
  br label %.backedge

19:                                               ; preds = %17
  %20 = tail call i64 @avio_seek(ptr noundef %.32.val, i64 noundef 0, i32 noundef 1) #7
  %21 = tail call i64 @avio_seek(ptr noundef %.32.val, i64 noundef -5, i32 noundef 1) #7
  %22 = icmp slt i64 %21, 0
  br i1 %22, label %.loopexit, label %23

23:                                               ; preds = %19
  %24 = call fastcc i32 @parse_packet_header(ptr noundef %.32.val, ptr noundef %4, ptr noundef %3)
  %25 = icmp eq i32 %24, 0
  %26 = load i32, ptr %4, align 4
  %27 = icmp ne i32 %26, 191
  %or.cond = select i1 %25, i1 true, i1 %27
  br i1 %or.cond, label %28, label %31

28:                                               ; preds = %23
  %29 = tail call i64 @avio_seek(ptr noundef %.32.val, i64 noundef %20, i32 noundef 0) #7
  %30 = icmp slt i64 %29, 0
  br i1 %30, label %.loopexit, label %.backedge.backedge

31:                                               ; preds = %23
  %32 = tail call i32 @avio_r8(ptr noundef %.32.val) #7
  %33 = tail call i32 @avio_r8(ptr noundef %.32.val) #7
  %34 = tail call i32 @avio_rb32(ptr noundef %.32.val) #7
  %35 = zext i32 %34 to i64
  %36 = tail call i64 @avio_seek(ptr noundef %.32.val, i64 noundef 0, i32 noundef 1) #7
  %37 = add nsw i64 %36, -22
  %38 = icmp ugt i32 %1, %34
  %or.cond50 = select i1 %6, i1 %38, i1 false
  br i1 %or.cond50, label %39, label %.loopexit

39:                                               ; preds = %31
  %40 = tail call i64 @avio_seek(ptr noundef %.32.val, i64 noundef %20, i32 noundef 0) #7
  %41 = icmp sgt i64 %40, -1
  br i1 %41, label %.outer, label %.loopexit

.loopexit:                                        ; preds = %31, %39, %28, %19, %._crit_edge, %15, %.lr.ph, %8
  %.138 = phi i64 [ %.037.ph, %8 ], [ %.037.ph, %.lr.ph ], [ %.037.ph, %15 ], [ %.037.ph, %._crit_edge ], [ %.037.ph, %19 ], [ %.037.ph, %28 ], [ %37, %39 ], [ %37, %31 ]
  %.134 = phi i64 [ %.033.ph, %8 ], [ %.033.ph, %.lr.ph ], [ %.033.ph, %15 ], [ %.033.ph, %._crit_edge ], [ %.033.ph, %19 ], [ %.033.ph, %28 ], [ %35, %39 ], [ %35, %31 ]
  %.not49 = icmp eq i64 %.138, 0
  br i1 %.not49, label %44, label %42

42:                                               ; preds = %.loopexit
  %43 = tail call i64 @avio_seek(ptr noundef %.32.val, i64 noundef %.138, i32 noundef 0) #7
  br label %44

44:                                               ; preds = %42, %.loopexit
  call void @llvm.lifetime.end.p0(i64 4, ptr nonnull %4) #7
  call void @llvm.lifetime.end.p0(i64 4, ptr nonnull %3) #7
  ret i64 %.134
}